; Function Attrs: nounwind sspstrong uwtable
define internal void @ivshmem_common_class_init(ptr noundef %klass, ptr readnone captures(none) %data) #0 {
entry:
  %call.i = tail call ptr @object_class_dynamic_cast_assert(ptr noundef %klass, ptr noundef nonnull @.str.4, ptr noundef nonnull @.str.5, i32 noundef 77, ptr noundef nonnull @__func__.DEVICE_CLASS) #11
  %call.i10 = tail call ptr @object_class_dynamic_cast_assert(ptr noundef %klass, ptr noundef nonnull @.str.1, ptr noundef nonnull @.str.6, i32 noundef 10, ptr noundef nonnull @__func__.PCI_DEVICE_CLASS) #11
  %realize = getelementptr inbounds nuw i8, ptr %call.i10, i64 176
  store ptr @ivshmem_common_realize, ptr %realize, align 8
  %exit = getelementptr inbounds nuw i8, ptr %call.i10, i64 184
  store ptr @ivshmem_exit, ptr %exit, align 8
  %config_write = getelementptr inbounds nuw i8, ptr %call.i10, i64 200
  store ptr @ivshmem_write_config, ptr %config_write, align 8
  %vendor_id = getelementptr inbounds nuw i8, ptr %call.i10, i64 208
  store i16 6900, ptr %vendor_id, align 8
  %device_id = getelementptr inbounds nuw i8, ptr %call.i10, i64 210
  store i16 4368, ptr %device_id, align 2
  %class_id = getelementptr inbounds nuw i8, ptr %call.i10, i64 214
  store i16 1280, ptr %class_id, align 2
  %revision = getelementptr inbounds nuw i8, ptr %call.i10, i64 212
  store i8 1, ptr %revision, align 4
  %reset = getelementptr inbounds nuw i8, ptr %call.i, i64 136
  store ptr @ivshmem_reset, ptr %reset, align 8
  %categories = getelementptr inbounds nuw i8, ptr %call.i, i64 96
  %0 = load i64, ptr %categories, align 8
  %or.i = or i64 %0, 128
  store i64 %or.i, ptr %categories, align 8
  %desc = getelementptr inbounds nuw i8, ptr %call.i, i64 112
  store ptr @.str.3, ptr %desc, align 8
  ret void
}